; ModuleID = '54/1284.c'
source_filename = "54/1284.c"
target datalayout = "e-m:e-p270:32:32-p271:32:32-p272:64:64-i64:64-f80:128-n8:16:32:64-S128"
target triple = "x86_64-pc-linux-gnu"

@n = common dso_local global i32 0, align 4
@k = common dso_local global i32 0, align 4
@.str = private unnamed_addr constant [5 x i8] c"%d%d\00", align 1
@.str.1 = private unnamed_addr constant [3 x i8] c"%d\00", align 1

; Function Attrs: noinline nounwind uwtable
define dso_local i32 @wa(i32 %0, i32 %1) #0 {
  %3 = alloca i32, align 4
  %4 = alloca i32, align 4
  %5 = alloca i32, align 4
  store i32 %0, i32* %4, align 4
  store i32 %1, i32* %5, align 4
  %6 = load i32, i32* %4, align 4
  %7 = icmp eq i32 %6, 0
  br i1 %7, label %8, label %10

8:                                                ; preds = %2
  %9 = load i32, i32* %5, align 4
  store i32 %9, i32* %3, align 4
  br label %29

10:                                               ; preds = %2
  %11 = load i32, i32* %5, align 4
  %12 = load i32, i32* @n, align 4
  %13 = sub nsw i32 %12, 1
  %14 = srem i32 %11, %13
  %15 = icmp eq i32 %14, 0
  br i1 %15, label %16, label %28

16:                                               ; preds = %10
  %17 = load i32, i32* %4, align 4
  %18 = sub nsw i32 %17, 1
  %19 = load i32, i32* %5, align 4
  %20 = load i32, i32* @n, align 4
  %21 = sub nsw i32 %20, 1
  %22 = sdiv i32 %19, %21
  %23 = load i32, i32* @n, align 4
  %24 = mul nsw i32 %22, %23
  %25 = load i32, i32* @k, align 4
  %26 = add nsw i32 %24, %25
  %27 = call i32 @wa(i32 %18, i32 %26)
  store i32 %27, i32* %3, align 4
  br label %29

28:                                               ; preds = %10
  store i32 0, i32* %3, align 4
  br label %29

29:                                               ; preds = %28, %16, %8
  %30 = load i32, i32* %3, align 4
  ret i32 %30
}

; Function Attrs: noinline nounwind uwtable
define dso_local i32 @main() #0 {
  %1 = alloca i32, align 4
  %2 = alloca i32, align 4
  %3 = alloca i32, align 4
  store i32 0, i32* %1, align 4
  store i32 0, i32* %3, align 4
  %4 = call i32 (i8*, ...) @__isoc99_scanf(i8* getelementptr inbounds ([5 x i8], [5 x i8]* @.str, i64 0, i64 0), i32* @n, i32* @k)
  %5 = load i32, i32* @n, align 4
  %6 = sub nsw i32 %5, 1
  store i32 %6, i32* %2, align 4
  br label %7

7:                                                ; preds = %11, %0
  %8 = load i32, i32* %3, align 4
  %9 = icmp ne i32 %8, 0
  %10 = xor i1 %9, true
  br i1 %10, label %11, label %17

11:                                               ; preds = %7
  %12 = load i32, i32* @n, align 4
  %13 = load i32, i32* %2, align 4
  %14 = call i32 @wa(i32 %12, i32 %13)
  store i32 %14, i32* %3, align 4
  %15 = load i32, i32* %2, align 4
  %16 = add nsw i32 %15, 1
  store i32 %16, i32* %2, align 4
  br label %7

17:                                               ; preds = %7
  %18 = load i32, i32* %3, align 4
  %19 = call i32 (i8*, ...) @printf(i8* getelementptr inbounds ([3 x i8], [3 x i8]* @.str.1, i64 0, i64 0), i32 %18)
  ret i32 0
}

declare dso_local i32 @__isoc99_scanf(i8*, ...) #1

declare dso_local i32 @printf(i8*, ...) #1


!llvm.module.flags = !{!0}
!llvm.ident = !{!1}

!0 = !{i32 1, !"wchar_size", i32 4}
!1 = !{!"clang version 10.0.0-4ubuntu1 "}
