; ModuleID = 'source-C-CXX/53/1284.c'
source_filename = "source-C-CXX/53/1284.c"
target datalayout = "e-m:e-p270:32:32-p271:32:32-p272:64:64-i64:64-f80:128-n8:16:32:64-S128"
target triple = "x86_64-pc-linux-gnu"

@n = dso_local global i32 0, align 4
@k = dso_local global i32 0, align 4
@.str = private unnamed_addr constant [5 x i8] c"%d%d\00", align 1
@.str.1 = private unnamed_addr constant [3 x i8] c"%d\00", align 1

; Function Attrs: nofree nosync nounwind readonly sspstrong uwtable
define dso_local i32 @wa(i32 %0, i32 %1) local_unnamed_addr #0 {
  %3 = load i32, i32* @n, align 4
  %4 = add nsw i32 %3, -1
  %5 = load i32, i32* @k, align 4
  %6 = icmp eq i32 %0, 0
  br i1 %6, label %18, label %7

7:                                                ; preds = %2, %13
  %8 = phi i32 [ %16, %13 ], [ %1, %2 ]
  %9 = phi i32 [ %14, %13 ], [ %0, %2 ]
  %10 = srem i32 %8, %4
  %11 = sdiv i32 %8, %4
  %12 = icmp eq i32 %10, 0
  br i1 %12, label %13, label %18

13:                                               ; preds = %7
  %14 = add nsw i32 %9, -1
  %15 = mul nsw i32 %11, %3
  %16 = add nsw i32 %15, %5
  %17 = icmp eq i32 %14, 0
  br i1 %17, label %18, label %7

18:                                               ; preds = %13, %7, %2
  %19 = phi i32 [ %1, %2 ], [ 0, %7 ], [ %16, %13 ]
  ret i32 %19
}

; Function Attrs: nofree nounwind sspstrong uwtable
define dso_local i32 @main() local_unnamed_addr #1 {
  %1 = tail call i32 (i8*, ...) @__isoc99_scanf(i8* getelementptr inbounds ([5 x i8], [5 x i8]* @.str, i64 0, i64 0), i32* nonnull @n, i32* nonnull @k)
  %2 = load i32, i32* @n, align 4, !tbaa !5
  %3 = add nsw i32 %2, -1
  %4 = load i32, i32* @k, align 4
  %5 = icmp eq i32 %2, 0
  br i1 %5, label %23, label %6

6:                                                ; preds = %0, %19
  %7 = phi i32 [ %21, %19 ], [ %3, %0 ]
  br label %8

8:                                                ; preds = %6, %14
  %9 = phi i32 [ %17, %14 ], [ %7, %6 ]
  %10 = phi i32 [ %15, %14 ], [ %2, %6 ]
  %11 = srem i32 %9, %3
  %12 = sdiv i32 %9, %3
  %13 = icmp eq i32 %11, 0
  br i1 %13, label %14, label %19

14:                                               ; preds = %8
  %15 = add nsw i32 %10, -1
  %16 = mul nsw i32 %12, %2
  %17 = add nsw i32 %16, %4
  %18 = icmp eq i32 %15, 0
  br i1 %18, label %19, label %8

19:                                               ; preds = %14, %8
  %20 = phi i32 [ %17, %14 ], [ 0, %8 ]
  %21 = add nsw i32 %7, 1
  %22 = icmp eq i32 %20, 0
  br i1 %22, label %6, label %23, !llvm.loop !9

23:                                               ; preds = %19, %0
  %24 = phi i32 [ -1, %0 ], [ %20, %19 ]
  %25 = tail call i32 (i8*, ...) @printf(i8* nonnull dereferenceable(1) getelementptr inbounds ([3 x i8], [3 x i8]* @.str.1, i64 0, i64 0), i32 %24)
  ret i32 0
}

; Function Attrs: nofree nounwind
declare noundef i32 @__isoc99_scanf(i8* nocapture noundef readonly, ...) local_unnamed_addr #2

; Function Attrs: nofree nounwind
declare noundef i32 @printf(i8* nocapture noundef readonly, ...) local_unnamed_addr #2


!llvm.module.flags = !{!0, !1, !2, !3}
!llvm.ident = !{!4}

!0 = !{i32 1, !"wchar_size", i32 4}
!1 = !{i32 7, !"PIC Level", i32 2}
!2 = !{i32 7, !"PIE Level", i32 2}
!3 = !{i32 7, !"uwtable", i32 1}
!4 = !{!"clang version 13.0.0"}
!5 = !{!6, !6, i64 0}
!6 = !{!"int", !7, i64 0}
!7 = !{!"omnipotent char", !8, i64 0}
!8 = !{!"Simple C/C++ TBAA"}
!9 = distinct !{!9, !10}
!10 = !{!"llvm.loop.mustprogress"}
